; ModuleID = 'source-C-CXX/24/1325.cpp'
source_filename = "source-C-CXX/24/1325.cpp"
target datalayout = "e-m:e-p270:32:32-p271:32:32-p272:64:64-i64:64-f80:128-n8:16:32:64-S128"
target triple = "x86_64-pc-linux-gnu"

%"class.std::ios_base::Init" = type { i8 }
%"class.std::basic_istream" = type { i32 (...)**, i64, %"class.std::basic_ios" }
%"class.std::basic_ios" = type { %"class.std::ios_base", %"class.std::basic_ostream"*, i8, i8, %"class.std::basic_streambuf"*, %"class.std::ctype"*, %"class.std::num_put"*, %"class.std::num_get"* }
%"class.std::ios_base" = type { i32 (...)**, i64, i64, i32, i32, i32, %"struct.std::ios_base::_Callback_list"*, %"struct.std::ios_base::_Words", [8 x %"struct.std::ios_base::_Words"], i32, %"struct.std::ios_base::_Words"*, %"class.std::locale" }
%"struct.std::ios_base::_Callback_list" = type { %"struct.std::ios_base::_Callback_list"*, void (i32, %"class.std::ios_base"*, i32)*, i32, i32 }
%"struct.std::ios_base::_Words" = type { i8*, i64 }
%"class.std::locale" = type { %"class.std::locale::_Impl"* }
%"class.std::locale::_Impl" = type { i32, %"class.std::locale::facet"**, i64, %"class.std::locale::facet"**, i8** }
%"class.std::locale::facet" = type <{ i32 (...)**, i32, [4 x i8] }>
%"class.std::basic_ostream" = type { i32 (...)**, %"class.std::basic_ios" }
%"class.std::basic_streambuf" = type { i32 (...)**, i8*, i8*, i8*, i8*, i8*, i8*, %"class.std::locale" }
%"class.std::ctype" = type <{ %"class.std::locale::facet.base", [4 x i8], %struct.__locale_struct*, i8, [7 x i8], i32*, i32*, i16*, i8, [256 x i8], [256 x i8], i8, [6 x i8] }>
%"class.std::locale::facet.base" = type <{ i32 (...)**, i32 }>
%struct.__locale_struct = type { [13 x %struct.__locale_data*], i16*, i32*, i32*, [13 x i8*] }
%struct.__locale_data = type opaque
%"class.std::num_put" = type { %"class.std::locale::facet.base", [4 x i8] }
%"class.std::num_get" = type { %"class.std::locale::facet.base", [4 x i8] }

@_ZStL8__ioinit = internal global %"class.std::ios_base::Init" zeroinitializer, align 1
@__dso_handle = external hidden global i8
@_ZSt3cin = external global %"class.std::basic_istream", align 8
@_ZSt4cout = external global %"class.std::basic_ostream", align 8
@llvm.global_ctors = appending global [1 x { i32, void ()*, i8* }] [{ i32, void ()*, i8* } { i32 65535, void ()* @_GLOBAL__sub_I_1325.cpp, i8* null }]

declare void @_ZNSt8ios_base4InitC1Ev(%"class.std::ios_base::Init"* nonnull align 1 dereferenceable(1)) unnamed_addr #0

; Function Attrs: nounwind
declare void @_ZNSt8ios_base4InitD1Ev(%"class.std::ios_base::Init"* nonnull align 1 dereferenceable(1)) unnamed_addr #1

; Function Attrs: nofree nounwind
declare i32 @__cxa_atexit(void (i8*)*, i8*, i8*) local_unnamed_addr #2

; Function Attrs: mustprogress norecurse sspstrong uwtable
define dso_local i32 @main() local_unnamed_addr #3 {
  %1 = alloca i8, align 1
  %2 = alloca [100 x i8], align 16
  %3 = alloca i32, align 4
  %4 = getelementptr inbounds [100 x i8], [100 x i8]* %2, i64 0, i64 0
  call void @llvm.lifetime.start.p0i8(i64 100, i8* nonnull %4) #8
  %5 = bitcast i32* %3 to i8*
  call void @llvm.lifetime.start.p0i8(i64 4, i8* nonnull %5) #8
  call void @llvm.memset.p0i8.i64(i8* noundef nonnull align 16 dereferenceable(100) %4, i8 0, i64 100, i1 false)
  %6 = call nonnull align 8 dereferenceable(16) %"class.std::basic_istream"* @_ZNSirsERi(%"class.std::basic_istream"* nonnull align 8 dereferenceable(16) @_ZSt3cin, i32* nonnull align 4 dereferenceable(4) %3)
  store i8 1, i8* %4, align 16, !tbaa !5
  %7 = load i32, i32* %3, align 4, !tbaa !8
  %8 = icmp sgt i32 %7, 0
  br i1 %8, label %9, label %56

9:                                                ; preds = %0
  %10 = bitcast [100 x i8]* %2 to <16 x i8>*
  %11 = bitcast [100 x i8]* %2 to <16 x i8>*
  %12 = getelementptr inbounds [100 x i8], [100 x i8]* %2, i64 0, i64 16
  %13 = bitcast i8* %12 to <16 x i8>*
  %14 = bitcast i8* %12 to <16 x i8>*
  %15 = getelementptr inbounds [100 x i8], [100 x i8]* %2, i64 0, i64 32
  %16 = bitcast i8* %15 to <16 x i8>*
  %17 = bitcast i8* %15 to <16 x i8>*
  %18 = getelementptr inbounds [100 x i8], [100 x i8]* %2, i64 0, i64 48
  %19 = bitcast i8* %18 to <16 x i8>*
  %20 = bitcast i8* %18 to <16 x i8>*
  %21 = getelementptr inbounds [100 x i8], [100 x i8]* %2, i64 0, i64 64
  %22 = bitcast i8* %21 to <16 x i8>*
  %23 = bitcast i8* %21 to <16 x i8>*
  %24 = getelementptr inbounds [100 x i8], [100 x i8]* %2, i64 0, i64 80
  %25 = bitcast i8* %24 to <16 x i8>*
  %26 = bitcast i8* %24 to <16 x i8>*
  %27 = getelementptr inbounds [100 x i8], [100 x i8]* %2, i64 0, i64 96
  %28 = getelementptr inbounds [100 x i8], [100 x i8]* %2, i64 0, i64 97
  %29 = getelementptr inbounds [100 x i8], [100 x i8]* %2, i64 0, i64 98
  %30 = getelementptr inbounds [100 x i8], [100 x i8]* %2, i64 0, i64 99
  br label %31

31:                                               ; preds = %9, %59
  %32 = phi i32 [ %60, %59 ], [ 0, %9 ]
  %33 = phi i32 [ %85, %59 ], [ 0, %9 ]
  %34 = load <16 x i8>, <16 x i8>* %10, align 16, !tbaa !5
  %35 = shl <16 x i8> %34, <i8 1, i8 1, i8 1, i8 1, i8 1, i8 1, i8 1, i8 1, i8 1, i8 1, i8 1, i8 1, i8 1, i8 1, i8 1, i8 1>
  store <16 x i8> %35, <16 x i8>* %11, align 16, !tbaa !5
  %36 = load <16 x i8>, <16 x i8>* %13, align 16, !tbaa !5
  %37 = shl <16 x i8> %36, <i8 1, i8 1, i8 1, i8 1, i8 1, i8 1, i8 1, i8 1, i8 1, i8 1, i8 1, i8 1, i8 1, i8 1, i8 1, i8 1>
  store <16 x i8> %37, <16 x i8>* %14, align 16, !tbaa !5
  %38 = load <16 x i8>, <16 x i8>* %16, align 16, !tbaa !5
  %39 = shl <16 x i8> %38, <i8 1, i8 1, i8 1, i8 1, i8 1, i8 1, i8 1, i8 1, i8 1, i8 1, i8 1, i8 1, i8 1, i8 1, i8 1, i8 1>
  store <16 x i8> %39, <16 x i8>* %17, align 16, !tbaa !5
  %40 = load <16 x i8>, <16 x i8>* %19, align 16, !tbaa !5
  %41 = shl <16 x i8> %40, <i8 1, i8 1, i8 1, i8 1, i8 1, i8 1, i8 1, i8 1, i8 1, i8 1, i8 1, i8 1, i8 1, i8 1, i8 1, i8 1>
  store <16 x i8> %41, <16 x i8>* %20, align 16, !tbaa !5
  %42 = load <16 x i8>, <16 x i8>* %22, align 16, !tbaa !5
  %43 = shl <16 x i8> %42, <i8 1, i8 1, i8 1, i8 1, i8 1, i8 1, i8 1, i8 1, i8 1, i8 1, i8 1, i8 1, i8 1, i8 1, i8 1, i8 1>
  store <16 x i8> %43, <16 x i8>* %23, align 16, !tbaa !5
  %44 = load <16 x i8>, <16 x i8>* %25, align 16, !tbaa !5
  %45 = shl <16 x i8> %44, <i8 1, i8 1, i8 1, i8 1, i8 1, i8 1, i8 1, i8 1, i8 1, i8 1, i8 1, i8 1, i8 1, i8 1, i8 1, i8 1>
  store <16 x i8> %45, <16 x i8>* %26, align 16, !tbaa !5
  %46 = load i8, i8* %27, align 16, !tbaa !5
  %47 = shl i8 %46, 1
  store i8 %47, i8* %27, align 16, !tbaa !5
  %48 = load i8, i8* %28, align 1, !tbaa !5
  %49 = shl i8 %48, 1
  store i8 %49, i8* %28, align 1, !tbaa !5
  %50 = load i8, i8* %29, align 2, !tbaa !5
  %51 = shl i8 %50, 1
  store i8 %51, i8* %29, align 2, !tbaa !5
  %52 = load i8, i8* %30, align 1, !tbaa !5
  %53 = shl i8 %52, 1
  store i8 %53, i8* %30, align 1, !tbaa !5
  br label %62

54:                                               ; preds = %59
  %55 = icmp sgt i32 %85, -1
  br i1 %55, label %56, label %87

56:                                               ; preds = %0, %54
  %57 = phi i32 [ %85, %54 ], [ 0, %0 ]
  %58 = zext i32 %57 to i64
  br label %115

59:                                               ; preds = %77
  %60 = add nuw nsw i32 %32, 1
  %61 = icmp eq i32 %60, %7
  br i1 %61, label %54, label %31, !llvm.loop !10

62:                                               ; preds = %31, %77
  %63 = phi i64 [ %78, %77 ], [ 0, %31 ]
  %64 = phi i32 [ %85, %77 ], [ %33, %31 ]
  %65 = getelementptr inbounds [100 x i8], [100 x i8]* %2, i64 0, i64 %63
  %66 = load i8, i8* %65, align 1, !tbaa !5
  %67 = icmp sgt i8 %66, 9
  br i1 %67, label %70, label %68

68:                                               ; preds = %62
  %69 = add nuw nsw i64 %63, 1
  br label %77

70:                                               ; preds = %62
  %71 = udiv i8 %66, 10
  %72 = add nuw nsw i64 %63, 1
  %73 = getelementptr inbounds [100 x i8], [100 x i8]* %2, i64 0, i64 %72
  %74 = load i8, i8* %73, align 1, !tbaa !5
  %75 = add i8 %74, %71
  store i8 %75, i8* %73, align 1, !tbaa !5
  %76 = urem i8 %66, 10
  store i8 %76, i8* %65, align 1, !tbaa !5
  br label %77

77:                                               ; preds = %68, %70
  %78 = phi i64 [ %69, %68 ], [ %72, %70 ]
  %79 = phi i8 [ %66, %68 ], [ %76, %70 ]
  %80 = icmp ne i8 %79, 0
  %81 = sext i32 %64 to i64
  %82 = icmp sgt i64 %63, %81
  %83 = select i1 %80, i1 %82, i1 false
  %84 = trunc i64 %63 to i32
  %85 = select i1 %83, i32 %84, i32 %64
  %86 = icmp eq i64 %78, 99
  br i1 %86, label %59, label %62, !llvm.loop !12

87:                                               ; preds = %115, %54
  %88 = load i8*, i8** bitcast (%"class.std::basic_ostream"* @_ZSt4cout to i8**), align 8, !tbaa !13
  %89 = getelementptr i8, i8* %88, i64 -24
  %90 = bitcast i8* %89 to i64*
  %91 = load i64, i64* %90, align 8
  %92 = add nsw i64 %91, 240
  %93 = getelementptr inbounds i8, i8* bitcast (%"class.std::basic_ostream"* @_ZSt4cout to i8*), i64 %92
  %94 = bitcast i8* %93 to %"class.std::ctype"**
  %95 = load %"class.std::ctype"*, %"class.std::ctype"** %94, align 8, !tbaa !15
  %96 = icmp eq %"class.std::ctype"* %95, null
  br i1 %96, label %97, label %98

97:                                               ; preds = %87
  call void @_ZSt16__throw_bad_castv() #9
  unreachable

98:                                               ; preds = %87
  %99 = getelementptr inbounds %"class.std::ctype", %"class.std::ctype"* %95, i64 0, i32 8
  %100 = load i8, i8* %99, align 8, !tbaa !19
  %101 = icmp eq i8 %100, 0
  br i1 %101, label %105, label %102

102:                                              ; preds = %98
  %103 = getelementptr inbounds %"class.std::ctype", %"class.std::ctype"* %95, i64 0, i32 9, i64 10
  %104 = load i8, i8* %103, align 1, !tbaa !5
  br label %111

105:                                              ; preds = %98
  call void @_ZNKSt5ctypeIcE13_M_widen_initEv(%"class.std::ctype"* nonnull align 8 dereferenceable(570) %95)
  %106 = bitcast %"class.std::ctype"* %95 to i8 (%"class.std::ctype"*, i8)***
  %107 = load i8 (%"class.std::ctype"*, i8)**, i8 (%"class.std::ctype"*, i8)*** %106, align 8, !tbaa !13
  %108 = getelementptr inbounds i8 (%"class.std::ctype"*, i8)*, i8 (%"class.std::ctype"*, i8)** %107, i64 6
  %109 = load i8 (%"class.std::ctype"*, i8)*, i8 (%"class.std::ctype"*, i8)** %108, align 8
  %110 = call signext i8 %109(%"class.std::ctype"* nonnull align 8 dereferenceable(570) %95, i8 signext 10)
  br label %111

111:                                              ; preds = %102, %105
  %112 = phi i8 [ %104, %102 ], [ %110, %105 ]
  %113 = call nonnull align 8 dereferenceable(8) %"class.std::basic_ostream"* @_ZNSo3putEc(%"class.std::basic_ostream"* nonnull align 8 dereferenceable(8) @_ZSt4cout, i8 signext %112)
  %114 = call nonnull align 8 dereferenceable(8) %"class.std::basic_ostream"* @_ZNSo5flushEv(%"class.std::basic_ostream"* nonnull align 8 dereferenceable(8) %113)
  call void @llvm.lifetime.end.p0i8(i64 4, i8* nonnull %5) #8
  call void @llvm.lifetime.end.p0i8(i64 100, i8* nonnull %4) #8
  ret i32 0

115:                                              ; preds = %56, %115
  %116 = phi i64 [ %58, %56 ], [ %122, %115 ]
  %117 = getelementptr inbounds [100 x i8], [100 x i8]* %2, i64 0, i64 %116
  %118 = load i8, i8* %117, align 1, !tbaa !5
  %119 = add i8 %118, 48
  call void @llvm.lifetime.start.p0i8(i64 1, i8* nonnull %1)
  store i8 %119, i8* %1, align 1, !tbaa !5
  %120 = call nonnull align 8 dereferenceable(8) %"class.std::basic_ostream"* @_ZSt16__ostream_insertIcSt11char_traitsIcEERSt13basic_ostreamIT_T0_ES6_PKS3_l(%"class.std::basic_ostream"* nonnull align 8 dereferenceable(8) @_ZSt4cout, i8* nonnull %1, i64 1)
  call void @llvm.lifetime.end.p0i8(i64 1, i8* nonnull %1)
  %121 = icmp sgt i64 %116, 0
  %122 = add nsw i64 %116, -1
  br i1 %121, label %115, label %87, !llvm.loop !21
}

; Function Attrs: argmemonly mustprogress nofree nosync nounwind willreturn
declare void @llvm.lifetime.start.p0i8(i64 immarg, i8* nocapture) #4

; Function Attrs: argmemonly mustprogress nofree nounwind willreturn writeonly
declare void @llvm.memset.p0i8.i64(i8* nocapture writeonly, i8, i64, i1 immarg) #5

declare nonnull align 8 dereferenceable(16) %"class.std::basic_istream"* @_ZNSirsERi(%"class.std::basic_istream"* nonnull align 8 dereferenceable(16), i32* nonnull align 4 dereferenceable(4)) local_unnamed_addr #0

; Function Attrs: argmemonly mustprogress nofree nosync nounwind willreturn
declare void @llvm.lifetime.end.p0i8(i64 immarg, i8* nocapture) #4

declare nonnull align 8 dereferenceable(8) %"class.std::basic_ostream"* @_ZSt16__ostream_insertIcSt11char_traitsIcEERSt13basic_ostreamIT_T0_ES6_PKS3_l(%"class.std::basic_ostream"* nonnull align 8 dereferenceable(8), i8*, i64) local_unnamed_addr #0

declare nonnull align 8 dereferenceable(8) %"class.std::basic_ostream"* @_ZNSo3putEc(%"class.std::basic_ostream"* nonnull align 8 dereferenceable(8), i8 signext) local_unnamed_addr #0

declare nonnull align 8 dereferenceable(8) %"class.std::basic_ostream"* @_ZNSo5flushEv(%"class.std::basic_ostream"* nonnull align 8 dereferenceable(8)) local_unnamed_addr #0

; Function Attrs: noreturn
declare void @_ZSt16__throw_bad_castv() local_unnamed_addr #6

declare void @_ZNKSt5ctypeIcE13_M_widen_initEv(%"class.std::ctype"* nonnull align 8 dereferenceable(570)) local_unnamed_addr #0

; Function Attrs: sspstrong uwtable
define internal void @_GLOBAL__sub_I_1325.cpp() #7 section ".text.startup" {
  tail call void @_ZNSt8ios_base4InitC1Ev(%"class.std::ios_base::Init"* nonnull align 1 dereferenceable(1) @_ZStL8__ioinit)
  %1 = tail call i32 @__cxa_atexit(void (i8*)* bitcast (void (%"class.std::ios_base::Init"*)* @_ZNSt8ios_base4InitD1Ev to void (i8*)*), i8* getelementptr inbounds (%"class.std::ios_base::Init", %"class.std::ios_base::Init"* @_ZStL8__ioinit, i64 0, i32 0), i8* nonnull @__dso_handle) #8
  ret void
}


!llvm.module.flags = !{!0, !1, !2, !3}
!llvm.ident = !{!4}

!0 = !{i32 1, !"wchar_size", i32 4}
!1 = !{i32 7, !"PIC Level", i32 2}
!2 = !{i32 7, !"PIE Level", i32 2}
!3 = !{i32 7, !"uwtable", i32 1}
!4 = !{!"clang version 13.0.0"}
!5 = !{!6, !6, i64 0}
!6 = !{!"omnipotent char", !7, i64 0}
!7 = !{!"Simple C++ TBAA"}
!8 = !{!9, !9, i64 0}
!9 = !{!"int", !6, i64 0}
!10 = distinct !{!10, !11}
!11 = !{!"llvm.loop.mustprogress"}
!12 = distinct !{!12, !11}
!13 = !{!14, !14, i64 0}
!14 = !{!"vtable pointer", !7, i64 0}
!15 = !{!16, !17, i64 240}
!16 = !{!"_ZTSSt9basic_iosIcSt11char_traitsIcEE", !17, i64 216, !6, i64 224, !18, i64 225, !17, i64 232, !17, i64 240, !17, i64 248, !17, i64 256}
!17 = !{!"any pointer", !6, i64 0}
!18 = !{!"bool", !6, i64 0}
!19 = !{!20, !6, i64 56}
!20 = !{!"_ZTSSt5ctypeIcE", !17, i64 16, !18, i64 24, !17, i64 32, !17, i64 40, !17, i64 48, !6, i64 56, !6, i64 57, !6, i64 313, !6, i64 569}
!21 = distinct !{!21, !11}
